; Function Attrs: mustprogress nounwind uwtable
define noundef nonnull ptr @_Z15ConstructLinker13EShExecutablei(i32 noundef %0, i32 noundef %1) local_unnamed_addr #0 {
  %3 = tail call noalias noundef nonnull dereferenceable(168) ptr @_Znwm(i64 noundef 168) #8
  %4 = getelementptr inbounds i8, ptr %3, i64 72
  %5 = tail call noalias noundef nonnull dereferenceable(96) ptr @_Znwm(i64 noundef 96) #8
  tail call void @_ZN7glslang14TPoolAllocatorC1Eii(ptr noundef nonnull align 8 dereferenceable(96) %5, i32 noundef 8192, i32 noundef 16) #9
  %6 = getelementptr inbounds i8, ptr %3, i64 8
  store ptr %5, ptr %6, align 8
  %7 = getelementptr inbounds i8, ptr %3, i64 16
  store ptr %4, ptr %7, align 8
  %8 = getelementptr inbounds i8, ptr %3, i64 24
  store i32 %0, ptr %8, align 8
  %9 = getelementptr inbounds i8, ptr %3, i64 28
  store i8 0, ptr %9, align 4
  %10 = getelementptr inbounds i8, ptr %3, i64 32
  %11 = getelementptr inbounds i8, ptr %3, i64 64
  store ptr null, ptr %11, align 8
  tail call void @llvm.memset.p0.i64(ptr noundef nonnull align 8 dereferenceable(28) %10, i8 0, i64 28, i1 false)
  store ptr getelementptr inbounds inrange(-16, 120) (i8, ptr @_ZTV14TGenericLinker, i64 16), ptr %3, align 8
  tail call void @_ZNSt7__cxx1112basic_stringIcSt11char_traitsIcESaIcEEC1Ev(ptr noundef nonnull align 8 dereferenceable(32) %4) #9
  %12 = getelementptr inbounds i8, ptr %3, i64 104
  store i32 4, ptr %12, align 8
  %13 = getelementptr inbounds i8, ptr %3, i64 112
  store ptr null, ptr %13, align 8
  %14 = getelementptr inbounds i8, ptr %3, i64 120
  tail call void @_ZNSt7__cxx1112basic_stringIcSt11char_traitsIcESaIcEEC1Ev(ptr noundef nonnull align 8 dereferenceable(32) %14) #9
  %15 = getelementptr inbounds i8, ptr %3, i64 152
  store i32 4, ptr %15, align 8
  %16 = getelementptr inbounds i8, ptr %3, i64 160
  store ptr null, ptr %16, align 8
  ret ptr %3
}